target datalayout = "e-m:e-p270:32:32-p271:32:32-p272:64:64-i64:64-i128:128-f80:128-n8:16:32:64-S128"
target triple = "x86_64-unknown-linux-gnu"

%struct.configEnum = type { ptr, i32 }
%struct.typeInterface = type { ptr, ptr, ptr, ptr, ptr }
%struct.enumConfigData = type { ptr, ptr, i32, ptr }
%struct.standardConfig = type { ptr, ptr, i32, %struct.typeInterface, %union.typeData, i32, ptr }
%union.typeData = type { %struct.numericConfigData }
%struct.numericConfigData = type { %union.anon, i32, i32, i64, i64, i64, ptr }
%union.anon = type { ptr }

@.str.378 = private unnamed_addr constant [43 x i8] c"argument(s) must be one of the following: \00", align 1
@.str.379 = private unnamed_addr constant [3 x i8] c", \00", align 1
@loadbuf = internal global [256 x i8] zeroinitializer, align 16

; Function Attrs: nounwind uwtable
define dso_local i32 @configEnumGetValue(ptr noundef %ce, ptr noundef %argv, i32 noundef %argc, i32 noundef %bitflags) #0 {
entry:
  %retval = alloca i32, align 4
  %ce.addr = alloca ptr, align 8
  %argv.addr = alloca ptr, align 8
  %argc.addr = alloca i32, align 4
  %bitflags.addr = alloca i32, align 4
  %values = alloca i32, align 4
  %i = alloca i32, align 4
  %matched = alloca i32, align 4
  %ceItem = alloca ptr, align 8
  store ptr %ce, ptr %ce.addr, align 8
  store ptr %argv, ptr %argv.addr, align 8
  store i32 %argc, ptr %argc.addr, align 4
  store i32 %bitflags, ptr %bitflags.addr, align 4
  %0 = load i32, ptr %argc.addr, align 4
  %cmp = icmp eq i32 %0, 0
  br i1 %cmp, label %if.then, label %lor.lhs.false

lor.lhs.false:                                    ; preds = %entry
  %1 = load i32, ptr %bitflags.addr, align 4
  %tobool = icmp ne i32 %1, 0
  br i1 %tobool, label %if.end, label %land.lhs.true

land.lhs.true:                                    ; preds = %lor.lhs.false
  %2 = load i32, ptr %argc.addr, align 4
  %cmp1 = icmp ne i32 %2, 1
  br i1 %cmp1, label %if.then, label %if.end

if.then:                                          ; preds = %land.lhs.true, %entry
  store i32 -2147483648, ptr %retval, align 4
  br label %return

if.end:                                           ; preds = %land.lhs.true, %lor.lhs.false
  store i32 0, ptr %values, align 4
  store i32 0, ptr %i, align 4
  br label %for.cond

for.cond:                                         ; preds = %for.inc13, %if.end
  %3 = load i32, ptr %i, align 4
  %4 = load i32, ptr %argc.addr, align 4
  %cmp2 = icmp slt i32 %3, %4
  br i1 %cmp2, label %for.body, label %for.end14

for.body:                                         ; preds = %for.cond
  store i32 0, ptr %matched, align 4
  %5 = load ptr, ptr %ce.addr, align 8
  store ptr %5, ptr %ceItem, align 8
  br label %for.cond3

for.cond3:                                        ; preds = %for.inc, %for.body
  %6 = load ptr, ptr %ceItem, align 8
  %name = getelementptr inbounds %struct.configEnum, ptr %6, i32 0, i32 0
  %7 = load ptr, ptr %name, align 8
  %cmp4 = icmp ne ptr %7, null
  br i1 %cmp4, label %for.body5, label %for.end

for.body5:                                        ; preds = %for.cond3
  %8 = load ptr, ptr %argv.addr, align 8
  %9 = load i32, ptr %i, align 4
  %idxprom = sext i32 %9 to i64
  %arrayidx = getelementptr inbounds ptr, ptr %8, i64 %idxprom
  %10 = load ptr, ptr %arrayidx, align 8
  %11 = load ptr, ptr %ceItem, align 8
  %name6 = getelementptr inbounds %struct.configEnum, ptr %11, i32 0, i32 0
  %12 = load ptr, ptr %name6, align 8
  %call = call i32 @strcasecmp(ptr noundef %10, ptr noundef %12) #10
  %tobool7 = icmp ne i32 %call, 0
  br i1 %tobool7, label %if.end9, label %if.then8

if.then8:                                         ; preds = %for.body5
  %13 = load ptr, ptr %ceItem, align 8
  %val = getelementptr inbounds %struct.configEnum, ptr %13, i32 0, i32 1
  %14 = load i32, ptr %val, align 8
  %15 = load i32, ptr %values, align 4
  %or = or i32 %15, %14
  store i32 %or, ptr %values, align 4
  store i32 1, ptr %matched, align 4
  br label %if.end9

if.end9:                                          ; preds = %if.then8, %for.body5
  br label %for.inc

for.inc:                                          ; preds = %if.end9
  %16 = load ptr, ptr %ceItem, align 8
  %incdec.ptr = getelementptr inbounds %struct.configEnum, ptr %16, i32 1
  store ptr %incdec.ptr, ptr %ceItem, align 8
  br label %for.cond3, !llvm.loop !5

for.end:                                          ; preds = %for.cond3
  %17 = load i32, ptr %matched, align 4
  %tobool10 = icmp ne i32 %17, 0
  br i1 %tobool10, label %if.end12, label %if.then11

if.then11:                                        ; preds = %for.end
  store i32 -2147483648, ptr %retval, align 4
  br label %return

if.end12:                                         ; preds = %for.end
  br label %for.inc13

for.inc13:                                        ; preds = %if.end12
  %18 = load i32, ptr %i, align 4
  %inc = add nsw i32 %18, 1
  store i32 %inc, ptr %i, align 4
  br label %for.cond, !llvm.loop !7

for.end14:                                        ; preds = %for.cond
  %19 = load i32, ptr %values, align 4
  store i32 %19, ptr %retval, align 4
  br label %return

return:                                           ; preds = %for.end14, %if.then11, %if.then
  %20 = load i32, ptr %retval, align 4
  ret i32 %20
}

; Function Attrs: nounwind uwtable
define internal i32 @enumConfigSet(ptr noundef %config, ptr noundef %argv, i32 noundef %argc, ptr noundef %err) #0 {
entry:
  %retval = alloca i32, align 4
  %config.addr = alloca ptr, align 8
  %argv.addr = alloca ptr, align 8
  %argc.addr = alloca i32, align 4
  %err.addr = alloca ptr, align 8
  %enumval = alloca i32, align 4
  %bitflags = alloca i32, align 4
  %enumerr = alloca ptr, align 8
  %enumNode = alloca ptr, align 8
  %prev = alloca i32, align 4
  store ptr %config, ptr %config.addr, align 8
  store ptr %argv, ptr %argv.addr, align 8
  store i32 %argc, ptr %argc.addr, align 4
  store ptr %err, ptr %err.addr, align 8
  %0 = load ptr, ptr %config.addr, align 8
  %flags = getelementptr inbounds %struct.standardConfig, ptr %0, i32 0, i32 2
  %1 = load i32, ptr %flags, align 8
  %conv = zext i32 %1 to i64
  %and = and i64 %conv, 8
  %tobool = icmp ne i64 %and, 0
  %lnot = xor i1 %tobool, true
  %lnot1 = xor i1 %lnot, true
  %lnot.ext = zext i1 %lnot1 to i32
  store i32 %lnot.ext, ptr %bitflags, align 4
  %2 = load ptr, ptr %config.addr, align 8
  %data = getelementptr inbounds %struct.standardConfig, ptr %2, i32 0, i32 4
  %enum_value = getelementptr inbounds %struct.enumConfigData, ptr %data, i32 0, i32 1
  %3 = load ptr, ptr %enum_value, align 8
  %4 = load ptr, ptr %argv.addr, align 8
  %5 = load i32, ptr %argc.addr, align 4
  %6 = load i32, ptr %bitflags, align 4
  %call = call i32 @configEnumGetValue(ptr noundef %3, ptr noundef %4, i32 noundef %5, i32 noundef %6)
  store i32 %call, ptr %enumval, align 4
  %7 = load i32, ptr %enumval, align 4
  %cmp = icmp eq i32 %7, -2147483648
  br i1 %cmp, label %if.then, label %if.end

if.then:                                          ; preds = %entry
  %call3 = call ptr @sdsnew(ptr noundef @.str.378)
  store ptr %call3, ptr %enumerr, align 8
  %8 = load ptr, ptr %config.addr, align 8
  %data4 = getelementptr inbounds %struct.standardConfig, ptr %8, i32 0, i32 4
  %enum_value5 = getelementptr inbounds %struct.enumConfigData, ptr %data4, i32 0, i32 1
  %9 = load ptr, ptr %enum_value5, align 8
  store ptr %9, ptr %enumNode, align 8
  br label %while.cond

while.cond:                                       ; preds = %while.body, %if.then
  %10 = load ptr, ptr %enumNode, align 8
  %name = getelementptr inbounds %struct.configEnum, ptr %10, i32 0, i32 0
  %11 = load ptr, ptr %name, align 8
  %cmp6 = icmp ne ptr %11, null
  br i1 %cmp6, label %while.body, label %while.end

while.body:                                       ; preds = %while.cond
  %12 = load ptr, ptr %enumerr, align 8
  %13 = load ptr, ptr %enumNode, align 8
  %name8 = getelementptr inbounds %struct.configEnum, ptr %13, i32 0, i32 0
  %14 = load ptr, ptr %name8, align 8
  %15 = load ptr, ptr %enumNode, align 8
  %name9 = getelementptr inbounds %struct.configEnum, ptr %15, i32 0, i32 0
  %16 = load ptr, ptr %name9, align 8
  %call10 = call i64 @strlen(ptr noundef %16) #10
  %call11 = call ptr @sdscatlen(ptr noundef %12, ptr noundef %14, i64 noundef %call10)
  store ptr %call11, ptr %enumerr, align 8
  %17 = load ptr, ptr %enumerr, align 8
  %call12 = call ptr @sdscatlen(ptr noundef %17, ptr noundef @.str.379, i64 noundef 2)
  store ptr %call12, ptr %enumerr, align 8
  %18 = load ptr, ptr %enumNode, align 8
  %incdec.ptr = getelementptr inbounds %struct.configEnum, ptr %18, i32 1
  store ptr %incdec.ptr, ptr %enumNode, align 8
  br label %while.cond, !llvm.loop !46

while.end:                                        ; preds = %while.cond
  %19 = load ptr, ptr %enumerr, align 8
  call void @sdsrange(ptr noundef %19, i64 noundef 0, i64 noundef -3)
  %20 = load ptr, ptr %enumerr, align 8
  %call13 = call i64 @redis_strlcpy(ptr noundef @loadbuf, ptr noundef %20, i64 noundef 256)
  %21 = load ptr, ptr %enumerr, align 8
  call void @sdsfree(ptr noundef %21)
  %22 = load ptr, ptr %err.addr, align 8
  store ptr @loadbuf, ptr %22, align 8
  store i32 0, ptr %retval, align 4
  br label %return

if.end:                                           ; preds = %entry
  %23 = load ptr, ptr %config.addr, align 8
  %data14 = getelementptr inbounds %struct.standardConfig, ptr %23, i32 0, i32 4
  %is_valid_fn = getelementptr inbounds %struct.enumConfigData, ptr %data14, i32 0, i32 3
  %24 = load ptr, ptr %is_valid_fn, align 8
  %tobool15 = icmp ne ptr %24, null
  br i1 %tobool15, label %land.lhs.true, label %if.end21

land.lhs.true:                                    ; preds = %if.end
  %25 = load ptr, ptr %config.addr, align 8
  %data16 = getelementptr inbounds %struct.standardConfig, ptr %25, i32 0, i32 4
  %is_valid_fn17 = getelementptr inbounds %struct.enumConfigData, ptr %data16, i32 0, i32 3
  %26 = load ptr, ptr %is_valid_fn17, align 8
  %27 = load i32, ptr %enumval, align 4
  %28 = load ptr, ptr %err.addr, align 8
  %call18 = call i32 %26(i32 noundef %27, ptr noundef %28)
  %tobool19 = icmp ne i32 %call18, 0
  br i1 %tobool19, label %if.end21, label %if.then20

if.then20:                                        ; preds = %land.lhs.true
  store i32 0, ptr %retval, align 4
  br label %return

if.end21:                                         ; preds = %land.lhs.true, %if.end
  %29 = load ptr, ptr %config.addr, align 8
  %flags22 = getelementptr inbounds %struct.standardConfig, ptr %29, i32 0, i32 2
  %30 = load i32, ptr %flags22, align 8
  %conv23 = zext i32 %30 to i64
  %and24 = and i64 %conv23, 256
  %tobool25 = icmp ne i64 %and24, 0
  br i1 %tobool25, label %cond.true, label %cond.false

cond.true:                                        ; preds = %if.end21
  %31 = load ptr, ptr %config.addr, align 8
  %privdata = getelementptr inbounds %struct.standardConfig, ptr %31, i32 0, i32 6
  %32 = load ptr, ptr %privdata, align 8
  %call26 = call i32 @getModuleEnumConfig(ptr noundef %32)
  br label %cond.end

cond.false:                                       ; preds = %if.end21
  %33 = load ptr, ptr %config.addr, align 8
  %data27 = getelementptr inbounds %struct.standardConfig, ptr %33, i32 0, i32 4
  %config28 = getelementptr inbounds %struct.enumConfigData, ptr %data27, i32 0, i32 0
  %34 = load ptr, ptr %config28, align 8
  %35 = load i32, ptr %34, align 4
  br label %cond.end

cond.end:                                         ; preds = %cond.false, %cond.true
  %cond = phi i32 [ %call26, %cond.true ], [ %35, %cond.false ]
  store i32 %cond, ptr %prev, align 4
  %36 = load i32, ptr %prev, align 4
  %37 = load i32, ptr %enumval, align 4
  %cmp29 = icmp ne i32 %36, %37
  br i1 %cmp29, label %if.then31, label %if.end42

if.then31:                                        ; preds = %cond.end
  %38 = load ptr, ptr %config.addr, align 8
  %flags32 = getelementptr inbounds %struct.standardConfig, ptr %38, i32 0, i32 2
  %39 = load i32, ptr %flags32, align 8
  %conv33 = zext i32 %39 to i64
  %and34 = and i64 %conv33, 256
  %tobool35 = icmp ne i64 %and34, 0
  br i1 %tobool35, label %if.then36, label %if.end39

if.then36:                                        ; preds = %if.then31
  %40 = load ptr, ptr %config.addr, align 8
  %privdata37 = getelementptr inbounds %struct.standardConfig, ptr %40, i32 0, i32 6
  %41 = load ptr, ptr %privdata37, align 8
  %42 = load i32, ptr %enumval, align 4
  %43 = load ptr, ptr %err.addr, align 8
  %call38 = call i32 @setModuleEnumConfig(ptr noundef %41, i32 noundef %42, ptr noundef %43)
  store i32 %call38, ptr %retval, align 4
  br label %return

if.end39:                                         ; preds = %if.then31
  %44 = load i32, ptr %enumval, align 4
  %45 = load ptr, ptr %config.addr, align 8
  %data40 = getelementptr inbounds %struct.standardConfig, ptr %45, i32 0, i32 4
  %config41 = getelementptr inbounds %struct.enumConfigData, ptr %data40, i32 0, i32 0
  %46 = load ptr, ptr %config41, align 8
  store i32 %44, ptr %46, align 4
  store i32 1, ptr %retval, align 4
  br label %return

if.end42:                                         ; preds = %cond.end
  %47 = load ptr, ptr %config.addr, align 8
  %flags43 = getelementptr inbounds %struct.standardConfig, ptr %47, i32 0, i32 2
  %48 = load i32, ptr %flags43, align 8
  %conv44 = zext i32 %48 to i64
  %and45 = and i64 %conv44, 512
  %tobool46 = icmp ne i64 %and45, 0
  %cond47 = select i1 %tobool46, i32 1, i32 2
  store i32 %cond47, ptr %retval, align 4
  br label %return

return:                                           ; preds = %if.end42, %if.end39, %if.then36, %if.then20, %while.end
  %49 = load i32, ptr %retval, align 4
  ret i32 %49
}