; Function Attrs: nounwind uwtable
define internal i32 @enumConfigSet(ptr nocapture noundef readonly %config, ptr nocapture noundef readonly %argv, i32 noundef %argc, ptr noundef %err) #2 {
entry:
  %flags = getelementptr inbounds i8, ptr %config, i64 16
  %data = getelementptr inbounds i8, ptr %config, i64 64
  %enum_value = getelementptr inbounds i8, ptr %config, i64 72
  %0 = load ptr, ptr %enum_value, align 8
  %cmp.i = icmp eq i32 %argc, 0
  br i1 %cmp.i, label %if.then, label %lor.lhs.false.i

lor.lhs.false.i:                                  ; preds = %entry
  %1 = load i32, ptr %flags, align 8
  %2 = and i32 %1, 8
  %tobool.i = icmp eq i32 %2, 0
  %cmp1.i = icmp ne i32 %argc, 1
  %or.cond.i = and i1 %cmp1.i, %tobool.i
  br i1 %or.cond.i, label %if.then, label %for.cond.preheader.i

for.cond.preheader.i:                             ; preds = %lor.lhs.false.i
  %cmp214.i = icmp sgt i32 %argc, 0
  br i1 %cmp214.i, label %for.cond3.preheader.lr.ph.i, label %if.end

for.cond3.preheader.lr.ph.i:                      ; preds = %for.cond.preheader.i
  %3 = load ptr, ptr %0, align 8
  %cmp4.not9.i = icmp eq ptr %3, null
  br i1 %cmp4.not9.i, label %if.then, label %for.cond3.preheader.preheader.i

for.cond3.preheader.preheader.i:                  ; preds = %for.cond3.preheader.lr.ph.i
  %wide.trip.count.i = zext nneg i32 %argc to i64
  br label %for.cond3.preheader.i

for.cond.i:                                       ; preds = %for.inc.thread.i, %for.cond3.for.end_crit_edge.i
  %values.22530.i = phi i32 [ %values.110.ph.i, %for.cond3.for.end_crit_edge.i ], [ %or.i, %for.inc.thread.i ]
  %indvars.iv.next.i = add nuw nsw i64 %indvars.iv.i, 1
  %exitcond.not.i = icmp eq i64 %indvars.iv.next.i, %wide.trip.count.i
  br i1 %exitcond.not.i, label %configEnumGetValue.exit, label %for.cond3.preheader.i, !llvm.loop !5

for.cond3.preheader.i:                            ; preds = %for.cond.i, %for.cond3.preheader.preheader.i
  %indvars.iv.i = phi i64 [ 0, %for.cond3.preheader.preheader.i ], [ %indvars.iv.next.i, %for.cond.i ]
  %values.015.i = phi i32 [ 0, %for.cond3.preheader.preheader.i ], [ %values.22530.i, %for.cond.i ]
  %arrayidx.i = getelementptr inbounds ptr, ptr %argv, i64 %indvars.iv.i
  %4 = load ptr, ptr %arrayidx.i, align 8
  br label %for.body5.outer.i

for.body5.outer.i:                                ; preds = %for.inc.thread.i, %for.cond3.preheader.i
  %.ph.i = phi ptr [ %8, %for.inc.thread.i ], [ %3, %for.cond3.preheader.i ]
  %ceItem.012.ph.i = phi ptr [ %incdec.ptr23.i, %for.inc.thread.i ], [ %0, %for.cond3.preheader.i ]
  %tobool10.not.i = phi i1 [ false, %for.inc.thread.i ], [ true, %for.cond3.preheader.i ]
  %values.110.ph.i = phi i32 [ %or.i, %for.inc.thread.i ], [ %values.015.i, %for.cond3.preheader.i ]
  br label %for.body5.i

for.body5.i:                                      ; preds = %for.inc.i, %for.body5.outer.i
  %5 = phi ptr [ %6, %for.inc.i ], [ %.ph.i, %for.body5.outer.i ]
  %ceItem.012.i = phi ptr [ %incdec.ptr.i, %for.inc.i ], [ %ceItem.012.ph.i, %for.body5.outer.i ]
  %call.i = tail call i32 @strcasecmp(ptr noundef %4, ptr noundef nonnull %5) #23
  %tobool7.not.i = icmp eq i32 %call.i, 0
  br i1 %tobool7.not.i, label %for.inc.thread.i, label %for.inc.i

for.inc.i:                                        ; preds = %for.body5.i
  %incdec.ptr.i = getelementptr inbounds i8, ptr %ceItem.012.i, i64 16
  %6 = load ptr, ptr %incdec.ptr.i, align 8
  %cmp4.not.i = icmp eq ptr %6, null
  br i1 %cmp4.not.i, label %for.cond3.for.end_crit_edge.i, label %for.body5.i, !llvm.loop !7

for.inc.thread.i:                                 ; preds = %for.body5.i
  %val.i = getelementptr inbounds i8, ptr %ceItem.012.i, i64 8
  %7 = load i32, ptr %val.i, align 8
  %or.i = or i32 %7, %values.110.ph.i
  %incdec.ptr23.i = getelementptr inbounds i8, ptr %ceItem.012.i, i64 16
  %8 = load ptr, ptr %incdec.ptr23.i, align 8
  %cmp4.not24.i = icmp eq ptr %8, null
  br i1 %cmp4.not24.i, label %for.cond.i, label %for.body5.outer.i, !llvm.loop !7

for.cond3.for.end_crit_edge.i:                    ; preds = %for.inc.i
  br i1 %tobool10.not.i, label %if.then, label %for.cond.i

configEnumGetValue.exit:                          ; preds = %for.cond.i
  %cmp = icmp eq i32 %values.22530.i, -2147483648
  br i1 %cmp, label %if.then, label %if.end

if.then:                                          ; preds = %for.cond3.for.end_crit_edge.i, %for.cond3.preheader.lr.ph.i, %entry, %lor.lhs.false.i, %configEnumGetValue.exit
  %call3 = tail call ptr @sdsnew(ptr noundef nonnull @.str.378) #24
  %9 = load ptr, ptr %enum_value, align 8
  %10 = load ptr, ptr %9, align 8
  %cmp6.not35 = icmp eq ptr %10, null
  br i1 %cmp6.not35, label %while.end, label %while.body

while.body:                                       ; preds = %if.then, %while.body
  %11 = phi ptr [ %12, %while.body ], [ %10, %if.then ]
  %enumNode.037 = phi ptr [ %incdec.ptr, %while.body ], [ %9, %if.then ]
  %enumerr.036 = phi ptr [ %call12, %while.body ], [ %call3, %if.then ]
  %call10 = tail call i64 @strlen(ptr noundef nonnull dereferenceable(1) %11) #23
  %call11 = tail call ptr @sdscatlen(ptr noundef %enumerr.036, ptr noundef nonnull %11, i64 noundef %call10) #24
  %call12 = tail call ptr @sdscatlen(ptr noundef %call11, ptr noundef nonnull @.str.379, i64 noundef 2) #24
  %incdec.ptr = getelementptr inbounds i8, ptr %enumNode.037, i64 16
  %12 = load ptr, ptr %incdec.ptr, align 8
  %cmp6.not = icmp eq ptr %12, null
  br i1 %cmp6.not, label %while.end, label %while.body, !llvm.loop !47

while.end:                                        ; preds = %while.body, %if.then
  %enumerr.0.lcssa = phi ptr [ %call3, %if.then ], [ %call12, %while.body ]
  tail call void @sdsrange(ptr noundef %enumerr.0.lcssa, i64 noundef 0, i64 noundef -3) #24
  %call13 = tail call i64 @redis_strlcpy(ptr noundef nonnull @loadbuf, ptr noundef %enumerr.0.lcssa, i64 noundef 256) #24
  tail call void @sdsfree(ptr noundef %enumerr.0.lcssa) #24
  store ptr @loadbuf, ptr %err, align 8
  br label %return

if.end:                                           ; preds = %for.cond.preheader.i, %configEnumGetValue.exit
  %retval.0.i31 = phi i32 [ %values.22530.i, %configEnumGetValue.exit ], [ 0, %for.cond.preheader.i ]
  %is_valid_fn = getelementptr inbounds i8, ptr %config, i64 88
  %13 = load ptr, ptr %is_valid_fn, align 8
  %tobool15.not = icmp eq ptr %13, null
  br i1 %tobool15.not, label %if.end21, label %land.lhs.true

land.lhs.true:                                    ; preds = %if.end
  %call18 = tail call i32 %13(i32 noundef %retval.0.i31, ptr noundef %err) #24
  %tobool19.not = icmp eq i32 %call18, 0
  br i1 %tobool19.not, label %return, label %land.lhs.true.if.end21_crit_edge

land.lhs.true.if.end21_crit_edge:                 ; preds = %land.lhs.true
  %.pre = load i32, ptr %flags, align 8
  br label %if.end21

if.end21:                                         ; preds = %land.lhs.true.if.end21_crit_edge, %if.end
  %14 = phi i32 [ %.pre, %land.lhs.true.if.end21_crit_edge ], [ %1, %if.end ]
  %15 = and i32 %14, 256
  %tobool25.not = icmp eq i32 %15, 0
  br i1 %tobool25.not, label %cond.false, label %cond.true

cond.true:                                        ; preds = %if.end21
  %privdata = getelementptr inbounds i8, ptr %config, i64 120
  %16 = load ptr, ptr %privdata, align 8
  %call26 = tail call i32 @getModuleEnumConfig(ptr noundef %16) #24
  br label %cond.end

cond.false:                                       ; preds = %if.end21
  %17 = load ptr, ptr %data, align 8
  %18 = load i32, ptr %17, align 4
  br label %cond.end

cond.end:                                         ; preds = %cond.false, %cond.true
  %cond = phi i32 [ %call26, %cond.true ], [ %18, %cond.false ]
  %cmp29.not = icmp eq i32 %cond, %retval.0.i31
  %19 = load i32, ptr %flags, align 8
  br i1 %cmp29.not, label %if.end42, label %if.then31

if.then31:                                        ; preds = %cond.end
  %20 = and i32 %19, 256
  %tobool35.not = icmp eq i32 %20, 0
  br i1 %tobool35.not, label %if.end39, label %if.then36

if.then36:                                        ; preds = %if.then31
  %privdata37 = getelementptr inbounds i8, ptr %config, i64 120
  %21 = load ptr, ptr %privdata37, align 8
  %call38 = tail call i32 @setModuleEnumConfig(ptr noundef %21, i32 noundef %retval.0.i31, ptr noundef %err) #24
  br label %return

if.end39:                                         ; preds = %if.then31
  %22 = load ptr, ptr %data, align 8
  store i32 %retval.0.i31, ptr %22, align 4
  br label %return

if.end42:                                         ; preds = %cond.end
  %23 = and i32 %19, 512
  %tobool46.not = icmp eq i32 %23, 0
  %cond47 = select i1 %tobool46.not, i32 2, i32 1
  br label %return

return:                                           ; preds = %land.lhs.true, %if.end42, %if.end39, %if.then36, %while.end
  %retval.0 = phi i32 [ 0, %while.end ], [ %call38, %if.then36 ], [ 1, %if.end39 ], [ %cond47, %if.end42 ], [ 0, %land.lhs.true ]
  ret i32 %retval.0
}